
Ashot's_project.elf:     file format elf32-avr

Sections:
Idx Name          Size      VMA       LMA       File off  Algn
  0 .data         00000000  00800100  00800100  00000470  2**0
                  CONTENTS, ALLOC, LOAD, DATA
  1 .text         000003fc  00000000  00000000  00000074  2**1
                  CONTENTS, ALLOC, LOAD, READONLY, CODE
  2 .bss          00000017  00800100  00800100  00000470  2**0
                  ALLOC
  3 .comment      00000030  00000000  00000000  00000470  2**0
                  CONTENTS, READONLY
  4 .note.gnu.avr.deviceinfo 00000040  00000000  00000000  000004a0  2**2
                  CONTENTS, READONLY
  5 .debug_aranges 00000050  00000000  00000000  000004e0  2**0
                  CONTENTS, READONLY, DEBUGGING
  6 .debug_info   00000980  00000000  00000000  00000530  2**0
                  CONTENTS, READONLY, DEBUGGING
  7 .debug_abbrev 0000072d  00000000  00000000  00000eb0  2**0
                  CONTENTS, READONLY, DEBUGGING
  8 .debug_line   00000446  00000000  00000000  000015dd  2**0
                  CONTENTS, READONLY, DEBUGGING
  9 .debug_frame  000000f0  00000000  00000000  00001a24  2**2
                  CONTENTS, READONLY, DEBUGGING
 10 .debug_str    0000040a  00000000  00000000  00001b14  2**0
                  CONTENTS, READONLY, DEBUGGING
 11 .debug_loc    0000023b  00000000  00000000  00001f1e  2**0
                  CONTENTS, READONLY, DEBUGGING
 12 .debug_ranges 00000040  00000000  00000000  00002159  2**0
                  CONTENTS, READONLY, DEBUGGING

Disassembly of section .text:

00000000 <__vectors>:
   0:	0c 94 34 00 	jmp	0x68	; 0x68 <__ctors_end>
   4:	0c 94 61 00 	jmp	0xc2	; 0xc2 <__vector_1>
   8:	0c 94 5d 01 	jmp	0x2ba	; 0x2ba <__vector_2>
   c:	0c 94 46 00 	jmp	0x8c	; 0x8c <__bad_interrupt>
  10:	0c 94 46 00 	jmp	0x8c	; 0x8c <__bad_interrupt>
  14:	0c 94 46 00 	jmp	0x8c	; 0x8c <__bad_interrupt>
  18:	0c 94 46 00 	jmp	0x8c	; 0x8c <__bad_interrupt>
  1c:	0c 94 83 00 	jmp	0x106	; 0x106 <__vector_7>
  20:	0c 94 46 00 	jmp	0x8c	; 0x8c <__bad_interrupt>
  24:	0c 94 46 00 	jmp	0x8c	; 0x8c <__bad_interrupt>
  28:	0c 94 46 00 	jmp	0x8c	; 0x8c <__bad_interrupt>
  2c:	0c 94 46 00 	jmp	0x8c	; 0x8c <__bad_interrupt>
  30:	0c 94 46 00 	jmp	0x8c	; 0x8c <__bad_interrupt>
  34:	0c 94 46 00 	jmp	0x8c	; 0x8c <__bad_interrupt>
  38:	0c 94 08 01 	jmp	0x210	; 0x210 <__vector_14>
  3c:	0c 94 46 00 	jmp	0x8c	; 0x8c <__bad_interrupt>
  40:	0c 94 46 00 	jmp	0x8c	; 0x8c <__bad_interrupt>
  44:	0c 94 46 00 	jmp	0x8c	; 0x8c <__bad_interrupt>
  48:	0c 94 46 00 	jmp	0x8c	; 0x8c <__bad_interrupt>
  4c:	0c 94 46 00 	jmp	0x8c	; 0x8c <__bad_interrupt>
  50:	0c 94 46 00 	jmp	0x8c	; 0x8c <__bad_interrupt>
  54:	0c 94 46 00 	jmp	0x8c	; 0x8c <__bad_interrupt>
  58:	0c 94 46 00 	jmp	0x8c	; 0x8c <__bad_interrupt>
  5c:	0c 94 46 00 	jmp	0x8c	; 0x8c <__bad_interrupt>
  60:	0c 94 46 00 	jmp	0x8c	; 0x8c <__bad_interrupt>
  64:	0c 94 46 00 	jmp	0x8c	; 0x8c <__bad_interrupt>

00000068 <__ctors_end>:
  68:	11 24       	eor	r1, r1
  6a:	1f be       	out	0x3f, r1	; 63
  6c:	cf ef       	ldi	r28, 0xFF	; 255
  6e:	d8 e0       	ldi	r29, 0x08	; 8
  70:	de bf       	out	0x3e, r29	; 62
  72:	cd bf       	out	0x3d, r28	; 61

00000074 <__do_clear_bss>:
  74:	21 e0       	ldi	r18, 0x01	; 1
  76:	a0 e0       	ldi	r26, 0x00	; 0
  78:	b1 e0       	ldi	r27, 0x01	; 1
  7a:	01 c0       	rjmp	.+2      	; 0x7e <.do_clear_bss_start>

0000007c <.do_clear_bss_loop>:
  7c:	1d 92       	st	X+, r1

0000007e <.do_clear_bss_start>:
  7e:	a7 31       	cpi	r26, 0x17	; 23
  80:	b2 07       	cpc	r27, r18
  82:	e1 f7       	brne	.-8      	; 0x7c <.do_clear_bss_loop>
  84:	0e 94 c7 01 	call	0x38e	; 0x38e <main>
  88:	0c 94 fc 01 	jmp	0x3f8	; 0x3f8 <_exit>

0000008c <__bad_interrupt>:
  8c:	0c 94 00 00 	jmp	0	; 0x0 <__vectors>

00000090 <Init_Timers>:

void 	Init_Timers()
{
	// enable timer interrupt for Timer0
		
	TCCR0A = (1<<WGM21); //ctc
  90:	82 e0       	ldi	r24, 0x02	; 2
  92:	84 bd       	out	0x24, r24	; 36
	TCCR0B = (1<<CS01);   //use clk/8
  94:	85 bd       	out	0x25, r24	; 37
	TIMSK0 = (1<<OCIE0A); //interrupt
  96:	80 93 6e 00 	sts	0x006E, r24	; 0x80006e <__TEXT_REGION_LENGTH__+0x7e006e>
	TCNT0=0x00;
  9a:	16 bc       	out	0x26, r1	; 38
	OCR0A=199;   // 10kHz
  9c:	97 ec       	ldi	r25, 0xC7	; 199
  9e:	97 bd       	out	0x27, r25	; 39
	//OCR1A=199;	// 10kHz


	// enable timer interrupt for Timer2

	TCCR2A = (1<<WGM21); //ctc
  a0:	80 93 b0 00 	sts	0x00B0, r24	; 0x8000b0 <__TEXT_REGION_LENGTH__+0x7e00b0>
	TCCR2B = (1<<CS21);   //use clk/8
  a4:	80 93 b1 00 	sts	0x00B1, r24	; 0x8000b1 <__TEXT_REGION_LENGTH__+0x7e00b1>
	TIMSK2 = (1<<OCIE2A); //interrupt
  a8:	80 93 70 00 	sts	0x0070, r24	; 0x800070 <__TEXT_REGION_LENGTH__+0x7e0070>
	TCNT2=0x00;
  ac:	10 92 b2 00 	sts	0x00B2, r1	; 0x8000b2 <__TEXT_REGION_LENGTH__+0x7e00b2>
	OCR2A=199;   // 10kHz
  b0:	90 93 b3 00 	sts	0x00B3, r25	; 0x8000b3 <__TEXT_REGION_LENGTH__+0x7e00b3>
  b4:	08 95       	ret

000000b6 <Init_Interrupts>:

void Init_Interrupts()
{
	// enable External Interrupt Request 0 (pin 2)

	EICRA =0x03; //(1<<ISC00) | (1<<ISC01);
  b6:	83 e0       	ldi	r24, 0x03	; 3
  b8:	80 93 69 00 	sts	0x0069, r24	; 0x800069 <__TEXT_REGION_LENGTH__+0x7e0069>
	//EIFR = (1<<INTF0);
//
	//// enable External Interrupt Request 1 (pin 3)

	//EICRA =0x00;//(1<<ISC10) | (1<<ISC11);
	EIMSK = 0x03;//(1<<INT1);
  bc:	8d bb       	out	0x1d, r24	; 29
	EIFR = 0x03;//(1<<INTF1);
  be:	8c bb       	out	0x1c, r24	; 28
  c0:	08 95       	ret

000000c2 <__vector_1>:
//
	//PORTB&=(0<< PB0);
//}

ISR (INT0_vect)
{	
  c2:	1f 92       	push	r1
  c4:	0f 92       	push	r0
  c6:	0f b6       	in	r0, 0x3f	; 63
  c8:	0f 92       	push	r0
  ca:	11 24       	eor	r1, r1
  cc:	8f 93       	push	r24
  ce:	9f 93       	push	r25
	if(a==ON)
  d0:	80 91 12 01 	lds	r24, 0x0112	; 0x800112 <a>
  d4:	81 30       	cpi	r24, 0x01	; 1
  d6:	81 f4       	brne	.+32     	; 0xf8 <__vector_1+0x36>
	{
		battom1=ON;
  d8:	81 e0       	ldi	r24, 0x01	; 1
  da:	90 e0       	ldi	r25, 0x00	; 0
  dc:	90 93 0b 01 	sts	0x010B, r25	; 0x80010b <battom1+0x1>
  e0:	80 93 0a 01 	sts	0x010A, r24	; 0x80010a <battom1>
		j1=0;
  e4:	10 92 04 01 	sts	0x0104, r1	; 0x800104 <j1+0x1>
  e8:	10 92 03 01 	sts	0x0103, r1	; 0x800103 <j1>
		c=40960;//2560;
  ec:	80 e0       	ldi	r24, 0x00	; 0
  ee:	90 ea       	ldi	r25, 0xA0	; 160
  f0:	90 93 0d 01 	sts	0x010D, r25	; 0x80010d <c+0x1>
  f4:	80 93 0c 01 	sts	0x010C, r24	; 0x80010c <c>
	}
}
  f8:	9f 91       	pop	r25
  fa:	8f 91       	pop	r24
  fc:	0f 90       	pop	r0
  fe:	0f be       	out	0x3f, r0	; 63
 100:	0f 90       	pop	r0
 102:	1f 90       	pop	r1
 104:	18 95       	reti

00000106 <__vector_7>:

ISR (TIMER2_COMPA_vect) 
{
 106:	1f 92       	push	r1
 108:	0f 92       	push	r0
 10a:	0f b6       	in	r0, 0x3f	; 63
 10c:	0f 92       	push	r0
 10e:	11 24       	eor	r1, r1
 110:	2f 93       	push	r18
 112:	8f 93       	push	r24
 114:	9f 93       	push	r25
	
	if(battom1==ON)
 116:	80 91 0a 01 	lds	r24, 0x010A	; 0x80010a <battom1>
 11a:	90 91 0b 01 	lds	r25, 0x010B	; 0x80010b <battom1+0x1>
 11e:	01 97       	sbiw	r24, 0x01	; 1
 120:	09 f0       	breq	.+2      	; 0x124 <__vector_7+0x1e>
 122:	6e c0       	rjmp	.+220    	; 0x200 <__vector_7+0xfa>
	{
		a=OFF;
 124:	10 92 12 01 	sts	0x0112, r1	; 0x800112 <a>

		PORTB|=(1<< PB0);
 128:	28 9a       	sbi	0x05, 0	; 5
		

		if (b!=0)
 12a:	80 91 02 01 	lds	r24, 0x0102	; 0x800102 <b>
 12e:	88 23       	and	r24, r24
 130:	09 f4       	brne	.+2      	; 0x134 <__vector_7+0x2e>
 132:	53 c0       	rjmp	.+166    	; 0x1da <__vector_7+0xd4>
		{
			if(j1==0)
 134:	80 91 03 01 	lds	r24, 0x0103	; 0x800103 <j1>
 138:	90 91 04 01 	lds	r25, 0x0104	; 0x800104 <j1+0x1>
 13c:	00 97       	sbiw	r24, 0x00	; 0
 13e:	31 f5       	brne	.+76     	; 0x18c <__vector_7+0x86>
			{
				PORTB^=(1<< PB1 );
 140:	95 b1       	in	r25, 0x05	; 5
 142:	82 e0       	ldi	r24, 0x02	; 2
 144:	89 27       	eor	r24, r25
 146:	85 b9       	out	0x05, r24	; 5
				i1++;
 148:	80 91 13 01 	lds	r24, 0x0113	; 0x800113 <i1>
 14c:	90 91 14 01 	lds	r25, 0x0114	; 0x800114 <i1+0x1>
 150:	01 96       	adiw	r24, 0x01	; 1
 152:	90 93 14 01 	sts	0x0114, r25	; 0x800114 <i1+0x1>
 156:	80 93 13 01 	sts	0x0113, r24	; 0x800113 <i1>
			//	j1=4;

				/*******************************/
				/*==== >> avelacrac mas << ====*/

				if(c!=5)
 15a:	80 91 0c 01 	lds	r24, 0x010C	; 0x80010c <c>
 15e:	90 91 0d 01 	lds	r25, 0x010D	; 0x80010d <c+0x1>
 162:	85 30       	cpi	r24, 0x05	; 5
 164:	91 05       	cpc	r25, r1
 166:	59 f0       	breq	.+22     	; 0x17e <__vector_7+0x78>
				{
				c=c/2;
 168:	96 95       	lsr	r25
 16a:	87 95       	ror	r24
 16c:	90 93 0d 01 	sts	0x010D, r25	; 0x80010d <c+0x1>
 170:	80 93 0c 01 	sts	0x010C, r24	; 0x80010c <c>
				j1=c; 
 174:	90 93 04 01 	sts	0x0104, r25	; 0x800104 <j1+0x1>
 178:	80 93 03 01 	sts	0x0103, r24	; 0x800103 <j1>
 17c:	0c c0       	rjmp	.+24     	; 0x196 <__vector_7+0x90>
				}
				else
				j1=4;//1khz generation 6sc 10-200ms wait 
 17e:	84 e0       	ldi	r24, 0x04	; 4
 180:	90 e0       	ldi	r25, 0x00	; 0
 182:	90 93 04 01 	sts	0x0104, r25	; 0x800104 <j1+0x1>
 186:	80 93 03 01 	sts	0x0103, r24	; 0x800103 <j1>
 18a:	05 c0       	rjmp	.+10     	; 0x196 <__vector_7+0x90>

			}

			else
			{
				j1--;
 18c:	01 97       	sbiw	r24, 0x01	; 1
 18e:	90 93 04 01 	sts	0x0104, r25	; 0x800104 <j1+0x1>
 192:	80 93 03 01 	sts	0x0103, r24	; 0x800103 <j1>
			}

			if(i1==12000)
 196:	80 91 13 01 	lds	r24, 0x0113	; 0x800113 <i1>
 19a:	90 91 14 01 	lds	r25, 0x0114	; 0x800114 <i1+0x1>
 19e:	80 3e       	cpi	r24, 0xE0	; 224
 1a0:	9e 42       	sbci	r25, 0x2E	; 46
 1a2:	71 f5       	brne	.+92     	; 0x200 <__vector_7+0xfa>
			{
				i1=0;
 1a4:	10 92 14 01 	sts	0x0114, r1	; 0x800114 <i1+0x1>
 1a8:	10 92 13 01 	sts	0x0113, r1	; 0x800113 <i1>
				b--;
 1ac:	80 91 02 01 	lds	r24, 0x0102	; 0x800102 <b>
 1b0:	81 50       	subi	r24, 0x01	; 1
 1b2:	80 93 02 01 	sts	0x0102, r24	; 0x800102 <b>
				
				PORTB &= 0xFC; //&=(0<< PB1);
 1b6:	85 b1       	in	r24, 0x05	; 5
 1b8:	8c 7f       	andi	r24, 0xFC	; 252
 1ba:	85 b9       	out	0x05, r24	; 5
			//	PORTB &=(0<< PB0);
				PORTB ^=0x04;//(1<< PB2);
 1bc:	95 b1       	in	r25, 0x05	; 5
 1be:	84 e0       	ldi	r24, 0x04	; 4
 1c0:	89 27       	eor	r24, r25
 1c2:	85 b9       	out	0x05, r24	; 5
	#else
		//round up by default
		__ticks_dc = (uint32_t)(ceil(fabs(__tmp)));
	#endif

	__builtin_avr_delay_cycles(__ticks_dc);
 1c4:	8f ef       	ldi	r24, 0xFF	; 255
 1c6:	91 ee       	ldi	r25, 0xE1	; 225
 1c8:	24 e0       	ldi	r18, 0x04	; 4
 1ca:	81 50       	subi	r24, 0x01	; 1
 1cc:	90 40       	sbci	r25, 0x00	; 0
 1ce:	20 40       	sbci	r18, 0x00	; 0
 1d0:	e1 f7       	brne	.-8      	; 0x1ca <__vector_7+0xc4>
 1d2:	00 c0       	rjmp	.+0      	; 0x1d4 <__vector_7+0xce>
 1d4:	00 00       	nop
				_delay_ms(100);
				PORTB|=0x01;//(1<< PB0);
 1d6:	28 9a       	sbi	0x05, 0	; 5
 1d8:	13 c0       	rjmp	.+38     	; 0x200 <__vector_7+0xfa>
			}
		}

		else
		{
			PORTB|=0x04;//(1<< PB2);
 1da:	2a 9a       	sbi	0x05, 2	; 5
			PORTB&=0xFE;//(0<< PB0);
 1dc:	28 98       	cbi	0x05, 0	; 5
			battom1=OFF;
 1de:	10 92 0b 01 	sts	0x010B, r1	; 0x80010b <battom1+0x1>
 1e2:	10 92 0a 01 	sts	0x010A, r1	; 0x80010a <battom1>
			battom0=ON;
 1e6:	81 e0       	ldi	r24, 0x01	; 1
 1e8:	90 e0       	ldi	r25, 0x00	; 0
 1ea:	90 93 01 01 	sts	0x0101, r25	; 0x800101 <_edata+0x1>
 1ee:	80 93 00 01 	sts	0x0100, r24	; 0x800100 <_edata>
			j0=0;
 1f2:	10 92 11 01 	sts	0x0111, r1	; 0x800111 <j0+0x1>
 1f6:	10 92 10 01 	sts	0x0110, r1	; 0x800110 <j0>
			//b=Nuber_of_operetions;
			b=4;
 1fa:	84 e0       	ldi	r24, 0x04	; 4
 1fc:	80 93 02 01 	sts	0x0102, r24	; 0x800102 <b>
		}
	}

}	
 200:	9f 91       	pop	r25
 202:	8f 91       	pop	r24
 204:	2f 91       	pop	r18
 206:	0f 90       	pop	r0
 208:	0f be       	out	0x3f, r0	; 63
 20a:	0f 90       	pop	r0
 20c:	1f 90       	pop	r1
 20e:	18 95       	reti

00000210 <__vector_14>:



ISR (TIMER0_COMPA_vect)
{
 210:	1f 92       	push	r1
 212:	0f 92       	push	r0
 214:	0f b6       	in	r0, 0x3f	; 63
 216:	0f 92       	push	r0
 218:	11 24       	eor	r1, r1
 21a:	8f 93       	push	r24
 21c:	9f 93       	push	r25
	if(battom0==ON)
 21e:	80 91 00 01 	lds	r24, 0x0100	; 0x800100 <_edata>
 222:	90 91 01 01 	lds	r25, 0x0101	; 0x800101 <_edata+0x1>
 226:	01 97       	sbiw	r24, 0x01	; 1
 228:	09 f0       	breq	.+2      	; 0x22c <__vector_14+0x1c>
 22a:	40 c0       	rjmp	.+128    	; 0x2ac <__vector_14+0x9c>
	{
		PORTD|=(1<< PD7);
 22c:	5f 9a       	sbi	0x0b, 7	; 11

		if(j0==0)
 22e:	80 91 10 01 	lds	r24, 0x0110	; 0x800110 <j0>
 232:	90 91 11 01 	lds	r25, 0x0111	; 0x800111 <j0+0x1>
 236:	00 97       	sbiw	r24, 0x00	; 0
 238:	a1 f4       	brne	.+40     	; 0x262 <__vector_14+0x52>
		{
			PORTD^=(1<< PD6 );
 23a:	9b b1       	in	r25, 0x0b	; 11
 23c:	80 e4       	ldi	r24, 0x40	; 64
 23e:	89 27       	eor	r24, r25
 240:	8b b9       	out	0x0b, r24	; 11
			i0++;
 242:	80 91 0e 01 	lds	r24, 0x010E	; 0x80010e <i0>
 246:	90 91 0f 01 	lds	r25, 0x010F	; 0x80010f <i0+0x1>
 24a:	01 96       	adiw	r24, 0x01	; 1
 24c:	90 93 0f 01 	sts	0x010F, r25	; 0x80010f <i0+0x1>
 250:	80 93 0e 01 	sts	0x010E, r24	; 0x80010e <i0>
			j0=50;
 254:	82 e3       	ldi	r24, 0x32	; 50
 256:	90 e0       	ldi	r25, 0x00	; 0
 258:	90 93 11 01 	sts	0x0111, r25	; 0x800111 <j0+0x1>
 25c:	80 93 10 01 	sts	0x0110, r24	; 0x800110 <j0>
 260:	05 c0       	rjmp	.+10     	; 0x26c <__vector_14+0x5c>
		}

		else
		{
			j0--;
 262:	01 97       	sbiw	r24, 0x01	; 1
 264:	90 93 11 01 	sts	0x0111, r25	; 0x800111 <j0+0x1>
 268:	80 93 10 01 	sts	0x0110, r24	; 0x800110 <j0>
		}
		if(i0==200)
 26c:	80 91 0e 01 	lds	r24, 0x010E	; 0x80010e <i0>
 270:	90 91 0f 01 	lds	r25, 0x010F	; 0x80010f <i0+0x1>
 274:	88 3c       	cpi	r24, 0xC8	; 200
 276:	91 05       	cpc	r25, r1
 278:	c9 f4       	brne	.+50     	; 0x2ac <__vector_14+0x9c>
		{
			i0=0;
 27a:	10 92 0f 01 	sts	0x010F, r1	; 0x80010f <i0+0x1>
 27e:	10 92 0e 01 	sts	0x010E, r1	; 0x80010e <i0>
			battom0=OFF;
 282:	10 92 01 01 	sts	0x0101, r1	; 0x800101 <_edata+0x1>
 286:	10 92 00 01 	sts	0x0100, r1	; 0x800100 <_edata>
			PORTD&=(0<< PD7);
 28a:	8b b1       	in	r24, 0x0b	; 11
 28c:	1b b8       	out	0x0b, r1	; 11
			PORTD^=(0<< PD6);
 28e:	8b b1       	in	r24, 0x0b	; 11
 290:	8b b9       	out	0x0b, r24	; 11
			a=ON;
 292:	81 e0       	ldi	r24, 0x01	; 1
 294:	80 93 12 01 	sts	0x0112, r24	; 0x800112 <a>
			battom1=ON;
 298:	81 e0       	ldi	r24, 0x01	; 1
 29a:	90 e0       	ldi	r25, 0x00	; 0
 29c:	90 93 0b 01 	sts	0x010B, r25	; 0x80010b <battom1+0x1>
 2a0:	80 93 0a 01 	sts	0x010A, r24	; 0x80010a <battom1>
			j1=0;
 2a4:	10 92 04 01 	sts	0x0104, r1	; 0x800104 <j1+0x1>
 2a8:	10 92 03 01 	sts	0x0103, r1	; 0x800103 <j1>
		}

	}

}
 2ac:	9f 91       	pop	r25
 2ae:	8f 91       	pop	r24
 2b0:	0f 90       	pop	r0
 2b2:	0f be       	out	0x3f, r0	; 63
 2b4:	0f 90       	pop	r0
 2b6:	1f 90       	pop	r1
 2b8:	18 95       	reti

000002ba <__vector_2>:
/***************************************
===========>> manual mode <<===========*/
/*======= >> avelacrac mas << ==========*/

ISR(INT1_vect)
{
 2ba:	1f 92       	push	r1
 2bc:	0f 92       	push	r0
 2be:	0f b6       	in	r0, 0x3f	; 63
 2c0:	0f 92       	push	r0
 2c2:	11 24       	eor	r1, r1
 2c4:	2f 93       	push	r18
 2c6:	3f 93       	push	r19
 2c8:	8f 93       	push	r24
 2ca:	9f 93       	push	r25
 2cc:	ef 93       	push	r30
 2ce:	ff 93       	push	r31
	
	
	u= 0x00;
 2d0:	10 92 16 01 	sts	0x0116, r1	; 0x800116 <u>
	a=OFF;
 2d4:	10 92 12 01 	sts	0x0112, r1	; 0x800112 <a>
	battom1=OFF;
 2d8:	10 92 0b 01 	sts	0x010B, r1	; 0x80010b <battom1+0x1>
 2dc:	10 92 0a 01 	sts	0x010A, r1	; 0x80010a <battom1>
	battom0=OFF;
 2e0:	10 92 01 01 	sts	0x0101, r1	; 0x800101 <_edata+0x1>
 2e4:	10 92 00 01 	sts	0x0100, r1	; 0x800100 <_edata>
	PORTD&=0x7F;
 2e8:	5f 98       	cbi	0x0b, 7	; 11
	PORTB&=0xFE;
 2ea:	28 98       	cbi	0x05, 0	; 5
	PORTB^=0x20;
 2ec:	95 b1       	in	r25, 0x05	; 5
 2ee:	80 e2       	ldi	r24, 0x20	; 32
 2f0:	89 27       	eor	r24, r25
 2f2:	85 b9       	out	0x05, r24	; 5

	e=0x08 & PORTD;
 2f4:	8b b1       	in	r24, 0x0b	; 11
 2f6:	88 70       	andi	r24, 0x08	; 8
 2f8:	80 93 15 01 	sts	0x0115, r24	; 0x800115 <e>
	while(e==0)//)PD3
 2fc:	81 11       	cpse	r24, r1
 2fe:	39 c0       	rjmp	.+114    	; 0x372 <__vector_2+0xb8>
		w= 0x10 & PIND;
		while(w!=0)//PIND4==0x10
		{ 
			PORTB|=0x01;

			PORTB^=0x02;//(1<< PB1 );
 300:	32 e0       	ldi	r19, 0x02	; 2
		while(r!=0)
		{
			for(u=1;u<=200;u++)
			{
				PORTD|=0x80;//(1<< PD7);
				PORTD^=0x40;//(1<< PD6 );
 302:	90 e4       	ldi	r25, 0x40	; 64
			
		PORTB&=0xFE;//(0<< PB0);
		r=0x20 & PIND;
		while(r!=0)
		{
			for(u=1;u<=200;u++)
 304:	21 e0       	ldi	r18, 0x01	; 1

	e=0x08 & PORTD;
	while(e==0)//)PD3
	{

		w= 0x10 & PIND;
 306:	89 b1       	in	r24, 0x09	; 9
 308:	80 71       	andi	r24, 0x10	; 16
 30a:	80 93 05 01 	sts	0x0105, r24	; 0x800105 <w>
		while(w!=0)//PIND4==0x10
 30e:	88 23       	and	r24, r24
 310:	71 f0       	breq	.+28     	; 0x32e <__vector_2+0x74>
		{ 
			PORTB|=0x01;
 312:	28 9a       	sbi	0x05, 0	; 5

			PORTB^=0x02;//(1<< PB1 );
 314:	85 b1       	in	r24, 0x05	; 5
 316:	83 27       	eor	r24, r19
 318:	85 b9       	out	0x05, r24	; 5
	#else
		//round up by default
		__ticks_dc = (uint32_t)(ceil(fabs(__tmp)));
	#endif

	__builtin_avr_delay_cycles(__ticks_dc);
 31a:	ef ec       	ldi	r30, 0xCF	; 207
 31c:	f7 e0       	ldi	r31, 0x07	; 7
 31e:	31 97       	sbiw	r30, 0x01	; 1
 320:	f1 f7       	brne	.-4      	; 0x31e <__vector_2+0x64>
 322:	00 c0       	rjmp	.+0      	; 0x324 <__vector_2+0x6a>
 324:	00 00       	nop
	e=0x08 & PORTD;
	while(e==0)//)PD3
	{

		w= 0x10 & PIND;
		while(w!=0)//PIND4==0x10
 326:	80 91 05 01 	lds	r24, 0x0105	; 0x800105 <w>
 32a:	81 11       	cpse	r24, r1
 32c:	f2 cf       	rjmp	.-28     	; 0x312 <__vector_2+0x58>
			PORTB^=0x02;//(1<< PB1 );
			_delay_us(500);
							
		}
			
		PORTB&=0xFE;//(0<< PB0);
 32e:	28 98       	cbi	0x05, 0	; 5
		r=0x20 & PIND;
 330:	89 b1       	in	r24, 0x09	; 9
 332:	80 72       	andi	r24, 0x20	; 32
 334:	80 93 08 01 	sts	0x0108, r24	; 0x800108 <r>
		while(r!=0)
 338:	13 c0       	rjmp	.+38     	; 0x360 <__vector_2+0xa6>
		{
			for(u=1;u<=200;u++)
 33a:	20 93 16 01 	sts	0x0116, r18	; 0x800116 <u>
			{
				PORTD|=0x80;//(1<< PD7);
 33e:	5f 9a       	sbi	0x0b, 7	; 11
				PORTD^=0x40;//(1<< PD6 );
 340:	8b b1       	in	r24, 0x0b	; 11
 342:	89 27       	eor	r24, r25
 344:	8b b9       	out	0x0b, r24	; 11
	#else
		//round up by default
		__ticks_dc = (uint32_t)(ceil(fabs(__tmp)));
	#endif

	__builtin_avr_delay_cycles(__ticks_dc);
 346:	ef e1       	ldi	r30, 0x1F	; 31
 348:	fe e4       	ldi	r31, 0x4E	; 78
 34a:	31 97       	sbiw	r30, 0x01	; 1
 34c:	f1 f7       	brne	.-4      	; 0x34a <__vector_2+0x90>
 34e:	00 c0       	rjmp	.+0      	; 0x350 <__vector_2+0x96>
 350:	00 00       	nop
			
		PORTB&=0xFE;//(0<< PB0);
		r=0x20 & PIND;
		while(r!=0)
		{
			for(u=1;u<=200;u++)
 352:	80 91 16 01 	lds	r24, 0x0116	; 0x800116 <u>
 356:	8f 5f       	subi	r24, 0xFF	; 255
 358:	80 93 16 01 	sts	0x0116, r24	; 0x800116 <u>
 35c:	89 3c       	cpi	r24, 0xC9	; 201
 35e:	78 f3       	brcs	.-34     	; 0x33e <__vector_2+0x84>
							
		}
			
		PORTB&=0xFE;//(0<< PB0);
		r=0x20 & PIND;
		while(r!=0)
 360:	80 91 08 01 	lds	r24, 0x0108	; 0x800108 <r>
 364:	81 11       	cpse	r24, r1
 366:	e9 cf       	rjmp	.-46     	; 0x33a <__vector_2+0x80>
				PORTD^=0x40;//(1<< PD6 );
				_delay_ms(5);
			}

		}
		PORTD&=0x7F;
 368:	5f 98       	cbi	0x0b, 7	; 11
	PORTD&=0x7F;
	PORTB&=0xFE;
	PORTB^=0x20;

	e=0x08 & PORTD;
	while(e==0)//)PD3
 36a:	80 91 15 01 	lds	r24, 0x0115	; 0x800115 <e>
 36e:	88 23       	and	r24, r24
 370:	51 f2       	breq	.-108    	; 0x306 <__vector_2+0x4c>
		}
		PORTD&=0x7F;
		

		}
	a=ON;
 372:	81 e0       	ldi	r24, 0x01	; 1
 374:	80 93 12 01 	sts	0x0112, r24	; 0x800112 <a>


}
 378:	ff 91       	pop	r31
 37a:	ef 91       	pop	r30
 37c:	9f 91       	pop	r25
 37e:	8f 91       	pop	r24
 380:	3f 91       	pop	r19
 382:	2f 91       	pop	r18
 384:	0f 90       	pop	r0
 386:	0f be       	out	0x3f, r0	; 63
 388:	0f 90       	pop	r0
 38a:	1f 90       	pop	r1
 38c:	18 95       	reti

0000038e <main>:


int main(void)
{
	//way=0x00;
	battom0=OFF;
 38e:	10 92 01 01 	sts	0x0101, r1	; 0x800101 <_edata+0x1>
 392:	10 92 00 01 	sts	0x0100, r1	; 0x800100 <_edata>
	i0=0;
 396:	10 92 0f 01 	sts	0x010F, r1	; 0x80010f <i0+0x1>
 39a:	10 92 0e 01 	sts	0x010E, r1	; 0x80010e <i0>
	j0=0;
 39e:	10 92 11 01 	sts	0x0111, r1	; 0x800111 <j0+0x1>
 3a2:	10 92 10 01 	sts	0x0110, r1	; 0x800110 <j0>
	battom1=OFF;
 3a6:	10 92 0b 01 	sts	0x010B, r1	; 0x80010b <battom1+0x1>
 3aa:	10 92 0a 01 	sts	0x010A, r1	; 0x80010a <battom1>
	i1=0;
 3ae:	10 92 14 01 	sts	0x0114, r1	; 0x800114 <i1+0x1>
 3b2:	10 92 13 01 	sts	0x0113, r1	; 0x800113 <i1>
	j1=0;
 3b6:	10 92 04 01 	sts	0x0104, r1	; 0x800104 <j1+0x1>
 3ba:	10 92 03 01 	sts	0x0103, r1	; 0x800103 <j1>

	b=4;
 3be:	84 e0       	ldi	r24, 0x04	; 4
 3c0:	80 93 02 01 	sts	0x0102, r24	; 0x800102 <b>

	a=ON;
 3c4:	81 e0       	ldi	r24, 0x01	; 1
 3c6:	80 93 12 01 	sts	0x0112, r24	; 0x800112 <a>



	DDRB=(1<<DDB1)|(1<<DDB0)|(1<<DDB2)|(1<<DDB5);
 3ca:	87 e2       	ldi	r24, 0x27	; 39
 3cc:	84 b9       	out	0x04, r24	; 4
	PORTB=(1<< PB2)|(1<<PB5);
 3ce:	84 e2       	ldi	r24, 0x24	; 36
 3d0:	85 b9       	out	0x05, r24	; 5

	PORTD=0x00;
 3d2:	1b b8       	out	0x0b, r1	; 11
	DDRD=(1<<DDD7)|(1<<DDD6);
 3d4:	80 ec       	ldi	r24, 0xC0	; 192
 3d6:	8a b9       	out	0x0a, r24	; 10
	//PORTD=(1<<PORTD3);
	

	cli();
 3d8:	f8 94       	cli
	Init_Interrupts();
 3da:	0e 94 5b 00 	call	0xb6	; 0xb6 <Init_Interrupts>
	Init_Timers();
 3de:	0e 94 48 00 	call	0x90	; 0x90 <Init_Timers>
	//Init_ADC();
	//ADC_read();
	sei();
 3e2:	78 94       	sei
 3e4:	2f ef       	ldi	r18, 0xFF	; 255
 3e6:	83 ed       	ldi	r24, 0xD3	; 211
 3e8:	90 e3       	ldi	r25, 0x30	; 48
 3ea:	21 50       	subi	r18, 0x01	; 1
 3ec:	80 40       	sbci	r24, 0x00	; 0
 3ee:	90 40       	sbci	r25, 0x00	; 0
 3f0:	e1 f7       	brne	.-8      	; 0x3ea <main+0x5c>
 3f2:	00 c0       	rjmp	.+0      	; 0x3f4 <main+0x66>
 3f4:	00 00       	nop
 3f6:	f6 cf       	rjmp	.-20     	; 0x3e4 <main+0x56>

000003f8 <_exit>:
 3f8:	f8 94       	cli

000003fa <__stop_program>:
 3fa:	ff cf       	rjmp	.-2      	; 0x3fa <__stop_program>
